target datalayout = "e-m:e-p270:32:32-p271:32:32-p272:64:64-i64:64-i128:128-f80:128-n8:16:32:64-S128"
target triple = "x86_64-pc-linux-gnu"

%struct.timeval = type { i64, i64 }
%struct.sockaddr_storage = type { i16, [118 x i8], i64 }
%struct.evdns_base = type { ptr, ptr, ptr, i32, ptr, i32, i32, i32, i32, %struct.timeval, i32, i32, i32, i32, i16, %struct.timeval, i16, %struct.timeval, %struct.sockaddr_storage, i32, %struct.timeval, i32, i32, i32, i32, i32, i32, ptr, %struct.hosts_list, %struct.evdns_tree, ptr, i32, i32, i32, i32 }
%struct.hosts_list = type { ptr, ptr }
%struct.evdns_tree = type { ptr }
%struct.search_state = type { i32, i32, i32, ptr }
%struct.search_domain = type { i32, ptr }

@evthread_lock_debugging_enabled_ = external global i32, align 4

; Function Attrs: nounwind uwtable
define internal ptr @search_state_new() #0 {
  %1 = alloca ptr, align 8
  %2 = alloca ptr, align 8
  %3 = alloca i32, align 4
  call void @llvm.lifetime.start.p0(i64 8, ptr %2) #10
  %4 = call ptr @event_mm_malloc_(i64 noundef 24)
  store ptr %4, ptr %2, align 8
  %5 = load ptr, ptr %2, align 8
  %6 = icmp ne ptr %5, null
  br i1 %6, label %8, label %7

7:                                                ; preds = %0
  store ptr null, ptr %1, align 8
  store i32 1, ptr %3, align 4
  br label %15

8:                                                ; preds = %0
  %9 = load ptr, ptr %2, align 8
  call void @llvm.memset.p0.i64(ptr align 8 %9, i8 0, i64 24, i1 false)
  %10 = load ptr, ptr %2, align 8
  %11 = getelementptr inbounds nuw %struct.search_state, ptr %10, i32 0, i32 0
  store i32 1, ptr %11, align 8
  %12 = load ptr, ptr %2, align 8
  %13 = getelementptr inbounds nuw %struct.search_state, ptr %12, i32 0, i32 1
  store i32 1, ptr %13, align 4
  %14 = load ptr, ptr %2, align 8
  store ptr %14, ptr %1, align 8
  store i32 1, ptr %3, align 4
  br label %15

15:                                               ; preds = %8, %7
  call void @llvm.lifetime.end.p0(i64 8, ptr %2) #10
  %16 = load ptr, ptr %1, align 8
  ret ptr %16
}

; Function Attrs: nounwind uwtable
define internal void @search_state_decref(ptr noundef %0) #0 {
  %2 = alloca ptr, align 8
  %3 = alloca ptr, align 8
  %4 = alloca ptr, align 8
  store ptr %0, ptr %2, align 8
  %5 = load ptr, ptr %2, align 8
  %6 = icmp ne ptr %5, null
  br i1 %6, label %8, label %7

7:                                                ; preds = %1
  br label %33

8:                                                ; preds = %1
  %9 = load ptr, ptr %2, align 8
  %10 = getelementptr inbounds nuw %struct.search_state, ptr %9, i32 0, i32 0
  %11 = load i32, ptr %10, align 8
  %12 = add nsw i32 %11, -1
  store i32 %12, ptr %10, align 8
  %13 = load ptr, ptr %2, align 8
  %14 = getelementptr inbounds nuw %struct.search_state, ptr %13, i32 0, i32 0
  %15 = load i32, ptr %14, align 8
  %16 = icmp ne i32 %15, 0
  br i1 %16, label %33, label %17

17:                                               ; preds = %8
  call void @llvm.lifetime.start.p0(i64 8, ptr %3) #10
  call void @llvm.lifetime.start.p0(i64 8, ptr %4) #10
  %18 = load ptr, ptr %2, align 8
  %19 = getelementptr inbounds nuw %struct.search_state, ptr %18, i32 0, i32 3
  %20 = load ptr, ptr %19, align 8
  store ptr %20, ptr %4, align 8
  br label %21

21:                                               ; preds = %29, %17
  %22 = load ptr, ptr %4, align 8
  %23 = icmp ne ptr %22, null
  br i1 %23, label %24, label %31

24:                                               ; preds = %21
  %25 = load ptr, ptr %4, align 8
  %26 = getelementptr inbounds nuw %struct.search_domain, ptr %25, i32 0, i32 1
  %27 = load ptr, ptr %26, align 8
  store ptr %27, ptr %3, align 8
  %28 = load ptr, ptr %4, align 8
  call void @event_mm_free_(ptr noundef %28)
  br label %29

29:                                               ; preds = %24
  %30 = load ptr, ptr %3, align 8
  store ptr %30, ptr %4, align 8
  br label %21, !llvm.loop !56

31:                                               ; preds = %21
  %32 = load ptr, ptr %2, align 8
  call void @event_mm_free_(ptr noundef %32)
  call void @llvm.lifetime.end.p0(i64 8, ptr %4) #10
  call void @llvm.lifetime.end.p0(i64 8, ptr %3) #10
  br label %33

33:                                               ; preds = %7, %31, %8
  ret void
}

; Function Attrs: nounwind uwtable
define internal void @search_postfix_add(ptr noundef %0, ptr noundef %1) #0 {
  %3 = alloca ptr, align 8
  %4 = alloca ptr, align 8
  %5 = alloca i64, align 8
  %6 = alloca ptr, align 8
  %7 = alloca i32, align 4
  store ptr %0, ptr %3, align 8
  store ptr %1, ptr %4, align 8
  call void @llvm.lifetime.start.p0(i64 8, ptr %5) #10
  call void @llvm.lifetime.start.p0(i64 8, ptr %6) #10
  br label %8

8:                                                ; preds = %14, %2
  %9 = load ptr, ptr %4, align 8
  %10 = getelementptr inbounds i8, ptr %9, i64 0
  %11 = load i8, ptr %10, align 1
  %12 = sext i8 %11 to i32
  %13 = icmp eq i32 %12, 46
  br i1 %13, label %14, label %17

14:                                               ; preds = %8
  %15 = load ptr, ptr %4, align 8
  %16 = getelementptr inbounds nuw i8, ptr %15, i32 1
  store ptr %16, ptr %4, align 8
  br label %8, !llvm.loop !20

17:                                               ; preds = %8
  %18 = load ptr, ptr %4, align 8
  %19 = call i64 @strlen(ptr noundef %18) #12
  store i64 %19, ptr %5, align 8
  br label %20

20:                                               ; preds = %17
  %21 = load ptr, ptr %3, align 8
  %22 = getelementptr inbounds nuw %struct.evdns_base, ptr %21, i32 0, i32 30
  %23 = load ptr, ptr %22, align 8
  %24 = icmp ne ptr %23, null
  br i1 %24, label %25, label %32

25:                                               ; preds = %20
  %26 = load i32, ptr @evthread_lock_debugging_enabled_, align 4
  %27 = icmp ne i32 %26, 0
  br i1 %27, label %28, label %32

28:                                               ; preds = %25
  br label %29

29:                                               ; preds = %28
  br label %30

30:                                               ; preds = %29
  br label %31

31:                                               ; preds = %30
  br label %32

32:                                               ; preds = %31, %25, %20
  br label %33

33:                                               ; preds = %32
  br label %34

34:                                               ; preds = %33
  %35 = load ptr, ptr %3, align 8
  %36 = getelementptr inbounds nuw %struct.evdns_base, ptr %35, i32 0, i32 27
  %37 = load ptr, ptr %36, align 8
  %38 = icmp ne ptr %37, null
  br i1 %38, label %43, label %39

39:                                               ; preds = %34
  %40 = call ptr @search_state_new()
  %41 = load ptr, ptr %3, align 8
  %42 = getelementptr inbounds nuw %struct.evdns_base, ptr %41, i32 0, i32 27
  store ptr %40, ptr %42, align 8
  br label %43

43:                                               ; preds = %39, %34
  %44 = load ptr, ptr %3, align 8
  %45 = getelementptr inbounds nuw %struct.evdns_base, ptr %44, i32 0, i32 27
  %46 = load ptr, ptr %45, align 8
  %47 = icmp ne ptr %46, null
  br i1 %47, label %49, label %48

48:                                               ; preds = %43
  store i32 1, ptr %7, align 4
  br label %83

49:                                               ; preds = %43
  %50 = load ptr, ptr %3, align 8
  %51 = getelementptr inbounds nuw %struct.evdns_base, ptr %50, i32 0, i32 27
  %52 = load ptr, ptr %51, align 8
  %53 = getelementptr inbounds nuw %struct.search_state, ptr %52, i32 0, i32 2
  %54 = load i32, ptr %53, align 8
  %55 = add nsw i32 %54, 1
  store i32 %55, ptr %53, align 8
  %56 = load i64, ptr %5, align 8
  %57 = add i64 16, %56
  %58 = call ptr @event_mm_malloc_(i64 noundef %57)
  store ptr %58, ptr %6, align 8
  %59 = load ptr, ptr %6, align 8
  %60 = icmp ne ptr %59, null
  br i1 %60, label %62, label %61

61:                                               ; preds = %49
  store i32 1, ptr %7, align 4
  br label %83

62:                                               ; preds = %49
  %63 = load ptr, ptr %6, align 8
  %64 = getelementptr inbounds nuw i8, ptr %63, i64 16
  %65 = load ptr, ptr %4, align 8
  %66 = load i64, ptr %5, align 8
  call void @llvm.memcpy.p0.p0.i64(ptr align 1 %64, ptr align 1 %65, i64 %66, i1 false)
  %67 = load ptr, ptr %3, align 8
  %68 = getelementptr inbounds nuw %struct.evdns_base, ptr %67, i32 0, i32 27
  %69 = load ptr, ptr %68, align 8
  %70 = getelementptr inbounds nuw %struct.search_state, ptr %69, i32 0, i32 3
  %71 = load ptr, ptr %70, align 8
  %72 = load ptr, ptr %6, align 8
  %73 = getelementptr inbounds nuw %struct.search_domain, ptr %72, i32 0, i32 1
  store ptr %71, ptr %73, align 8
  %74 = load i64, ptr %5, align 8
  %75 = trunc i64 %74 to i32
  %76 = load ptr, ptr %6, align 8
  %77 = getelementptr inbounds nuw %struct.search_domain, ptr %76, i32 0, i32 0
  store i32 %75, ptr %77, align 8
  %78 = load ptr, ptr %6, align 8
  %79 = load ptr, ptr %3, align 8
  %80 = getelementptr inbounds nuw %struct.evdns_base, ptr %79, i32 0, i32 27
  %81 = load ptr, ptr %80, align 8
  %82 = getelementptr inbounds nuw %struct.search_state, ptr %81, i32 0, i32 3
  store ptr %78, ptr %82, align 8
  store i32 0, ptr %7, align 4
  br label %83

83:                                               ; preds = %62, %61, %48
  call void @llvm.lifetime.end.p0(i64 8, ptr %6) #10
  call void @llvm.lifetime.end.p0(i64 8, ptr %5) #10
  %84 = load i32, ptr %7, align 4
  switch i32 %84, label %86 [
    i32 0, label %85
    i32 1, label %85
  ]

85:                                               ; preds = %83, %83
  ret void

86:                                               ; preds = %83
  unreachable
}

; Function Attrs: nounwind uwtable
define internal void @search_postfix_clear(ptr noundef %0) #0 {
  %2 = alloca ptr, align 8
  store ptr %0, ptr %2, align 8
  %3 = load ptr, ptr %2, align 8
  %4 = getelementptr inbounds nuw %struct.evdns_base, ptr %3, i32 0, i32 27
  %5 = load ptr, ptr %4, align 8
  call void @search_state_decref(ptr noundef %5)
  %6 = call ptr @search_state_new()
  %7 = load ptr, ptr %2, align 8
  %8 = getelementptr inbounds nuw %struct.evdns_base, ptr %7, i32 0, i32 27
  store ptr %6, ptr %8, align 8
  ret void
}

; Function Attrs: nounwind uwtable
define internal void @search_set_from_hostname(ptr noundef %0) #0 {
  %2 = alloca ptr, align 8
  %3 = alloca [256 x i8], align 16
  %4 = alloca ptr, align 8
  %5 = alloca i32, align 4
  store ptr %0, ptr %2, align 8
  call void @llvm.lifetime.start.p0(i64 256, ptr %3) #10
  call void @llvm.lifetime.start.p0(i64 8, ptr %4) #10
  br label %6

6:                                                ; preds = %1
  %7 = load ptr, ptr %2, align 8
  %8 = getelementptr inbounds nuw %struct.evdns_base, ptr %7, i32 0, i32 30
  %9 = load ptr, ptr %8, align 8
  %10 = icmp ne ptr %9, null
  br i1 %10, label %11, label %18

11:                                               ; preds = %6
  %12 = load i32, ptr @evthread_lock_debugging_enabled_, align 4
  %13 = icmp ne i32 %12, 0
  br i1 %13, label %14, label %18

14:                                               ; preds = %11
  br label %15

15:                                               ; preds = %14
  br label %16

16:                                               ; preds = %15
  br label %17

17:                                               ; preds = %16
  br label %18

18:                                               ; preds = %17, %11, %6
  br label %19

19:                                               ; preds = %18
  br label %20

20:                                               ; preds = %19
  %21 = load ptr, ptr %2, align 8
  call void @search_postfix_clear(ptr noundef %21)
  %22 = getelementptr inbounds [256 x i8], ptr %3, i64 0, i64 0
  %23 = call i32 @gethostname(ptr noundef %22, i64 noundef 256) #10
  %24 = icmp ne i32 %23, 0
  br i1 %24, label %25, label %26

25:                                               ; preds = %20
  store i32 1, ptr %5, align 4
  br label %35

26:                                               ; preds = %20
  %27 = getelementptr inbounds [256 x i8], ptr %3, i64 0, i64 0
  %28 = call ptr @strchr(ptr noundef %27, i32 noundef 46) #12
  store ptr %28, ptr %4, align 8
  %29 = load ptr, ptr %4, align 8
  %30 = icmp ne ptr %29, null
  br i1 %30, label %32, label %31

31:                                               ; preds = %26
  store i32 1, ptr %5, align 4
  br label %35

32:                                               ; preds = %26
  %33 = load ptr, ptr %2, align 8
  %34 = load ptr, ptr %4, align 8
  call void @search_postfix_add(ptr noundef %33, ptr noundef %34)
  store i32 0, ptr %5, align 4
  br label %35

35:                                               ; preds = %32, %31, %25
  call void @llvm.lifetime.end.p0(i64 8, ptr %4) #10
  call void @llvm.lifetime.end.p0(i64 256, ptr %3) #10
  %36 = load i32, ptr %5, align 4
  switch i32 %36, label %38 [
    i32 0, label %37
    i32 1, label %37
  ]

37:                                               ; preds = %35, %35
  ret void

38:                                               ; preds = %35
  unreachable
}