; Function Attrs: nounwind uwtable
define internal fastcc void @search_set_from_hostname(ptr noundef captures(none) %0) unnamed_addr #2 {
  %2 = alloca [256 x i8], align 16
  call void @llvm.lifetime.start.p0(i64 256, ptr nonnull %2) #21
  %3 = getelementptr inbounds nuw i8, ptr %0, i64 312
  %4 = load ptr, ptr %3, align 8
  %.not.i.i = icmp eq ptr %4, null
  br i1 %.not.i.i, label %search_state_decref.exit.i, label %5

5:                                                ; preds = %1
  %6 = load i32, ptr %4, align 8
  %7 = add nsw i32 %6, -1
  store i32 %7, ptr %4, align 8
  %.not10.i.i = icmp eq i32 %7, 0
  br i1 %.not10.i.i, label %8, label %search_state_decref.exit.i

8:                                                ; preds = %5
  %9 = getelementptr inbounds nuw i8, ptr %4, i64 16
  %10 = load ptr, ptr %9, align 8
  %.not1112.i.i = icmp eq ptr %10, null
  br i1 %.not1112.i.i, label %._crit_edge.i.i, label %.lr.ph.i.i

.lr.ph.i.i:                                       ; preds = %8, %.lr.ph.i.i
  %.013.i.i = phi ptr [ %12, %.lr.ph.i.i ], [ %10, %8 ]
  %11 = getelementptr inbounds nuw i8, ptr %.013.i.i, i64 8
  %12 = load ptr, ptr %11, align 8
  tail call void @event_mm_free_(ptr noundef nonnull %.013.i.i) #21
  %.not11.i.i = icmp eq ptr %12, null
  br i1 %.not11.i.i, label %._crit_edge.i.i, label %.lr.ph.i.i, !llvm.loop !22

._crit_edge.i.i:                                  ; preds = %.lr.ph.i.i, %8
  tail call void @event_mm_free_(ptr noundef nonnull %4) #21
  br label %search_state_decref.exit.i

search_state_decref.exit.i:                       ; preds = %._crit_edge.i.i, %5, %1
  %13 = tail call ptr @event_mm_malloc_(i64 noundef 24) #21
  %.not.i2.i = icmp eq ptr %13, null
  br i1 %.not.i2.i, label %search_postfix_clear.exit, label %14

14:                                               ; preds = %search_state_decref.exit.i
  %15 = getelementptr inbounds nuw i8, ptr %13, i64 8
  tail call void @llvm.memset.p0.i64(ptr noundef nonnull align 8 dereferenceable(24) %15, i8 0, i64 16, i1 false)
  store i32 1, ptr %13, align 8
  %16 = getelementptr inbounds nuw i8, ptr %13, i64 4
  store i32 1, ptr %16, align 4
  br label %search_postfix_clear.exit

search_postfix_clear.exit:                        ; preds = %search_state_decref.exit.i, %14
  store ptr %13, ptr %3, align 8
  %17 = call i32 @gethostname(ptr noundef nonnull %2, i64 noundef 256) #21
  %.not = icmp eq i32 %17, 0
  br i1 %.not, label %18, label %search_postfix_add.exit

18:                                               ; preds = %search_postfix_clear.exit
  %19 = call ptr @strchr(ptr noundef nonnull dereferenceable(1) %2, i32 noundef 46) #23
  %.not6 = icmp eq ptr %19, null
  br i1 %.not6, label %search_postfix_add.exit, label %.preheader

.preheader:                                       ; preds = %18, %.preheader
  %.0.i = phi ptr [ %22, %.preheader ], [ %19, %18 ]
  %20 = load i8, ptr %.0.i, align 1
  %21 = icmp eq i8 %20, 46
  %22 = getelementptr inbounds nuw i8, ptr %.0.i, i64 1
  br i1 %21, label %.preheader, label %23, !llvm.loop !26

23:                                               ; preds = %.preheader
  %24 = call i64 @strlen(ptr noundef nonnull dereferenceable(1) %.0.i) #23
  %25 = load ptr, ptr %3, align 8
  %.not.i = icmp eq ptr %25, null
  br i1 %.not.i, label %26, label %.thread.i

26:                                               ; preds = %23
  %27 = call ptr @event_mm_malloc_(i64 noundef 24) #21
  %.not.i.i7 = icmp eq ptr %27, null
  br i1 %.not.i.i7, label %.thread24.i, label %28

.thread24.i:                                      ; preds = %26
  store ptr null, ptr %3, align 8
  br label %search_postfix_add.exit

28:                                               ; preds = %26
  %29 = getelementptr inbounds nuw i8, ptr %27, i64 8
  call void @llvm.memset.p0.i64(ptr noundef nonnull align 8 dereferenceable(24) %29, i8 0, i64 16, i1 false)
  store i32 1, ptr %27, align 8
  %30 = getelementptr inbounds nuw i8, ptr %27, i64 4
  store i32 1, ptr %30, align 4
  store ptr %27, ptr %3, align 8
  br label %.thread.i

.thread.i:                                        ; preds = %28, %23
  %31 = phi ptr [ %27, %28 ], [ %25, %23 ]
  %32 = getelementptr inbounds nuw i8, ptr %31, i64 8
  %33 = load i32, ptr %32, align 8
  %34 = add nsw i32 %33, 1
  store i32 %34, ptr %32, align 8
  %35 = add i64 %24, 16
  %36 = call ptr @event_mm_malloc_(i64 noundef %35) #21
  %.not22.i = icmp eq ptr %36, null
  br i1 %.not22.i, label %search_postfix_add.exit, label %37

37:                                               ; preds = %.thread.i
  %38 = getelementptr inbounds nuw i8, ptr %36, i64 16
  call void @llvm.memcpy.p0.p0.i64(ptr nonnull align 1 %38, ptr nonnull align 1 %.0.i, i64 %24, i1 false)
  %39 = load ptr, ptr %3, align 8
  %40 = getelementptr inbounds nuw i8, ptr %39, i64 16
  %41 = load ptr, ptr %40, align 8
  %42 = getelementptr inbounds nuw i8, ptr %36, i64 8
  store ptr %41, ptr %42, align 8
  %43 = trunc i64 %24 to i32
  store i32 %43, ptr %36, align 8
  %44 = load ptr, ptr %3, align 8
  %45 = getelementptr inbounds nuw i8, ptr %44, i64 16
  store ptr %36, ptr %45, align 8
  br label %search_postfix_add.exit

search_postfix_add.exit:                          ; preds = %37, %.thread.i, %.thread24.i, %18, %search_postfix_clear.exit
  call void @llvm.lifetime.end.p0(i64 256, ptr nonnull %2) #21
  ret void
}